target datalayout = "e-m:e-p270:32:32-p271:32:32-p272:64:64-i64:64-i128:128-f80:128-n8:16:32:64-S128"
target triple = "x86_64-pc-linux-gnu"

%struct.LOCKTAG = type { i32, i32, i32, i16, i8, i8 }
%struct.LOCALLOCKTAG = type { %struct.LOCKTAG, i32 }
%struct.LOCALLOCK = type { %struct.LOCALLOCKTAG, i32, ptr, ptr, i64, i32, i32, ptr, i8, i8 }
%struct.LOCALLOCKOWNER = type { ptr, i64 }

@.str.5 = private unnamed_addr constant [7 x i8] c"lock.c\00", align 1
@CurrentResourceOwner = external global ptr, align 8
@.str.36 = private unnamed_addr constant [28 x i8] c"ReleaseLockIfHeld: failed??\00", align 1
@__func__.ReleaseLockIfHeld = private unnamed_addr constant [18 x i8] c"ReleaseLockIfHeld\00", align 1

; Function Attrs: nounwind uwtable
define internal void @ReleaseLockIfHeld(ptr noundef %0, i1 noundef zeroext %1) #0 {
  %3 = alloca ptr, align 8
  %4 = alloca i8, align 1
  %5 = alloca ptr, align 8
  %6 = alloca ptr, align 8
  %7 = alloca i32, align 4
  store ptr %0, ptr %3, align 8
  %8 = zext i1 %1 to i8
  store i8 %8, ptr %4, align 1
  call void @llvm.lifetime.start.p0(i64 8, ptr %5) #9
  call void @llvm.lifetime.start.p0(i64 8, ptr %6) #9
  call void @llvm.lifetime.start.p0(i64 4, ptr %7) #9
  %9 = load i8, ptr %4, align 1, !range !4, !noundef !5
  %10 = trunc i8 %9 to i1
  br i1 %10, label %11, label %12

11:                                               ; preds = %2
  store ptr null, ptr %5, align 8
  br label %14

12:                                               ; preds = %2
  %13 = load ptr, ptr @CurrentResourceOwner, align 8
  store ptr %13, ptr %5, align 8
  br label %14

14:                                               ; preds = %12, %11
  %15 = load ptr, ptr %3, align 8
  %16 = getelementptr inbounds nuw %struct.LOCALLOCK, ptr %15, i32 0, i32 7
  %17 = load ptr, ptr %16, align 8
  store ptr %17, ptr %6, align 8
  %18 = load ptr, ptr %3, align 8
  %19 = getelementptr inbounds nuw %struct.LOCALLOCK, ptr %18, i32 0, i32 5
  %20 = load i32, ptr %19, align 8
  %21 = sub i32 %20, 1
  store i32 %21, ptr %7, align 4
  br label %22

22:                                               ; preds = %115, %14
  %23 = load i32, ptr %7, align 4
  %24 = icmp sge i32 %23, 0
  br i1 %24, label %25, label %118

25:                                               ; preds = %22
  %26 = load ptr, ptr %6, align 8
  %27 = load i32, ptr %7, align 4
  %28 = sext i32 %27 to i64
  %29 = getelementptr inbounds %struct.LOCALLOCKOWNER, ptr %26, i64 %28
  %30 = getelementptr inbounds nuw %struct.LOCALLOCKOWNER, ptr %29, i32 0, i32 0
  %31 = load ptr, ptr %30, align 8
  %32 = load ptr, ptr %5, align 8
  %33 = icmp eq ptr %31, %32
  br i1 %33, label %34, label %114

34:                                               ; preds = %25
  %35 = load ptr, ptr %6, align 8
  %36 = load i32, ptr %7, align 4
  %37 = sext i32 %36 to i64
  %38 = getelementptr inbounds %struct.LOCALLOCKOWNER, ptr %35, i64 %37
  %39 = getelementptr inbounds nuw %struct.LOCALLOCKOWNER, ptr %38, i32 0, i32 1
  %40 = load i64, ptr %39, align 8
  %41 = load ptr, ptr %3, align 8
  %42 = getelementptr inbounds nuw %struct.LOCALLOCK, ptr %41, i32 0, i32 4
  %43 = load i64, ptr %42, align 8
  %44 = icmp slt i64 %40, %43
  br i1 %44, label %45, label %83

45:                                               ; preds = %34
  %46 = load ptr, ptr %6, align 8
  %47 = load i32, ptr %7, align 4
  %48 = sext i32 %47 to i64
  %49 = getelementptr inbounds %struct.LOCALLOCKOWNER, ptr %46, i64 %48
  %50 = getelementptr inbounds nuw %struct.LOCALLOCKOWNER, ptr %49, i32 0, i32 1
  %51 = load i64, ptr %50, align 8
  %52 = load ptr, ptr %3, align 8
  %53 = getelementptr inbounds nuw %struct.LOCALLOCK, ptr %52, i32 0, i32 4
  %54 = load i64, ptr %53, align 8
  %55 = sub i64 %54, %51
  store i64 %55, ptr %53, align 8
  %56 = load ptr, ptr %3, align 8
  %57 = getelementptr inbounds nuw %struct.LOCALLOCK, ptr %56, i32 0, i32 5
  %58 = load i32, ptr %57, align 8
  %59 = add i32 %58, -1
  store i32 %59, ptr %57, align 8
  %60 = load ptr, ptr %5, align 8
  %61 = icmp ne ptr %60, null
  br i1 %61, label %62, label %65

62:                                               ; preds = %45
  %63 = load ptr, ptr %5, align 8
  %64 = load ptr, ptr %3, align 8
  call void @ResourceOwnerForgetLock(ptr noundef %63, ptr noundef %64)
  br label %65

65:                                               ; preds = %62, %45
  %66 = load i32, ptr %7, align 4
  %67 = load ptr, ptr %3, align 8
  %68 = getelementptr inbounds nuw %struct.LOCALLOCK, ptr %67, i32 0, i32 5
  %69 = load i32, ptr %68, align 8
  %70 = icmp slt i32 %66, %69
  br i1 %70, label %71, label %82

71:                                               ; preds = %65
  %72 = load ptr, ptr %6, align 8
  %73 = load i32, ptr %7, align 4
  %74 = sext i32 %73 to i64
  %75 = getelementptr inbounds %struct.LOCALLOCKOWNER, ptr %72, i64 %74
  %76 = load ptr, ptr %6, align 8
  %77 = load ptr, ptr %3, align 8
  %78 = getelementptr inbounds nuw %struct.LOCALLOCK, ptr %77, i32 0, i32 5
  %79 = load i32, ptr %78, align 8
  %80 = sext i32 %79 to i64
  %81 = getelementptr inbounds %struct.LOCALLOCKOWNER, ptr %76, i64 %80
  call void @llvm.memcpy.p0.p0.i64(ptr align 8 %75, ptr align 8 %81, i64 16, i1 false)
  br label %82

82:                                               ; preds = %71, %65
  br label %113

83:                                               ; preds = %34
  %84 = load ptr, ptr %6, align 8
  %85 = load i32, ptr %7, align 4
  %86 = sext i32 %85 to i64
  %87 = getelementptr inbounds %struct.LOCALLOCKOWNER, ptr %84, i64 %86
  %88 = getelementptr inbounds nuw %struct.LOCALLOCKOWNER, ptr %87, i32 0, i32 1
  store i64 1, ptr %88, align 8
  %89 = load ptr, ptr %3, align 8
  %90 = getelementptr inbounds nuw %struct.LOCALLOCK, ptr %89, i32 0, i32 4
  store i64 1, ptr %90, align 8
  %91 = load ptr, ptr %3, align 8
  %92 = getelementptr inbounds nuw %struct.LOCALLOCK, ptr %91, i32 0, i32 0
  %93 = getelementptr inbounds nuw %struct.LOCALLOCKTAG, ptr %92, i32 0, i32 0
  %94 = load ptr, ptr %3, align 8
  %95 = getelementptr inbounds nuw %struct.LOCALLOCK, ptr %94, i32 0, i32 0
  %96 = getelementptr inbounds nuw %struct.LOCALLOCKTAG, ptr %95, i32 0, i32 1
  %97 = load i32, ptr %96, align 8
  %98 = load i8, ptr %4, align 1, !range !4, !noundef !5
  %99 = trunc i8 %98 to i1
  %100 = call zeroext i1 @LockRelease(ptr noundef %93, i32 noundef %97, i1 noundef zeroext %99)
  br i1 %100, label %112, label %101

101:                                              ; preds = %83
  br label %102

102:                                              ; preds = %101
  br i1 false, label %103, label %105

103:                                              ; preds = %102
  %104 = call zeroext i1 @errstart_cold(i32 noundef 19, ptr noundef null) #10
  br i1 %104, label %107, label %109

105:                                              ; preds = %102
  %106 = call zeroext i1 @errstart(i32 noundef 19, ptr noundef null)
  br i1 %106, label %107, label %109

107:                                              ; preds = %105, %103
  %108 = call i32 (ptr, ...) @errmsg_internal(ptr noundef @.str.36)
  call void @errfinish(ptr noundef @.str.5, i32 noundef 2597, ptr noundef @__func__.ReleaseLockIfHeld)
  br label %109

109:                                              ; preds = %107, %105, %103
  br label %110

110:                                              ; preds = %109
  br label %111

111:                                              ; preds = %110
  br label %112

112:                                              ; preds = %111, %83
  br label %113

113:                                              ; preds = %112, %82
  br label %118

114:                                              ; preds = %25
  br label %115

115:                                              ; preds = %114
  %116 = load i32, ptr %7, align 4
  %117 = add i32 %116, -1
  store i32 %117, ptr %7, align 4
  br label %22, !llvm.loop !37

118:                                              ; preds = %113, %22
  call void @llvm.lifetime.end.p0(i64 4, ptr %7) #9
  call void @llvm.lifetime.end.p0(i64 8, ptr %6) #9
  call void @llvm.lifetime.end.p0(i64 8, ptr %5) #9
  ret void
}