; Function Attrs: nounwind uwtable
define internal fastcc void @ReleaseLockIfHeld(ptr noundef %0, i1 noundef zeroext %1) unnamed_addr #0 {
  %3 = load ptr, ptr @CurrentResourceOwner, align 8
  %.029 = select i1 %1, ptr null, ptr %3
  %4 = getelementptr inbounds nuw i8, ptr %0, i64 56
  %5 = load ptr, ptr %4, align 8
  %6 = getelementptr inbounds nuw i8, ptr %0, i64 48
  %7 = load i32, ptr %6, align 8
  %8 = zext i32 %7 to i64
  br label %9

9:                                                ; preds = %11, %2
  %indvars.iv = phi i64 [ %indvars.iv.next, %11 ], [ %8, %2 ]
  %indvars.iv.next = add nsw i64 %indvars.iv, -1
  %indvars = trunc i64 %indvars.iv.next to i32
  %10 = icmp sgt i32 %indvars, -1
  br i1 %10, label %11, label %.loopexit

11:                                               ; preds = %9
  %12 = and i64 %indvars.iv.next, 2147483647
  %13 = getelementptr inbounds nuw %struct.LOCALLOCKOWNER, ptr %5, i64 %12
  %14 = load ptr, ptr %13, align 8
  %15 = icmp eq ptr %14, %.029
  br i1 %15, label %16, label %9, !llvm.loop !31

16:                                               ; preds = %11
  %17 = getelementptr inbounds nuw i8, ptr %13, i64 8
  %18 = load i64, ptr %17, align 8
  %19 = getelementptr inbounds nuw i8, ptr %0, i64 40
  %20 = load i64, ptr %19, align 8
  %21 = icmp slt i64 %18, %20
  br i1 %21, label %22, label %32

22:                                               ; preds = %16
  %23 = sub i64 %20, %18
  store i64 %23, ptr %19, align 8
  %24 = add i32 %7, -1
  store i32 %24, ptr %6, align 8
  %.not = icmp eq ptr %.029, null
  br i1 %.not, label %26, label %25

25:                                               ; preds = %22
  tail call void @ResourceOwnerForgetLock(ptr noundef nonnull %.029, ptr noundef nonnull %0) #17
  %.pre = load i32, ptr %6, align 8
  br label %26

26:                                               ; preds = %25, %22
  %27 = phi i32 [ %.pre, %25 ], [ %24, %22 ]
  %28 = icmp sgt i32 %27, %indvars
  br i1 %28, label %29, label %.loopexit

29:                                               ; preds = %26
  %30 = zext nneg i32 %27 to i64
  %31 = getelementptr inbounds nuw %struct.LOCALLOCKOWNER, ptr %5, i64 %30
  tail call void @llvm.memcpy.p0.p0.i64(ptr noundef nonnull align 8 dereferenceable(16) %13, ptr noundef nonnull align 8 dereferenceable(16) %31, i64 16, i1 false)
  br label %.loopexit

32:                                               ; preds = %16
  store i64 1, ptr %17, align 8
  store i64 1, ptr %19, align 8
  %33 = getelementptr inbounds nuw i8, ptr %0, i64 16
  %34 = load i32, ptr %33, align 8
  %35 = tail call zeroext i1 @LockRelease(ptr noundef nonnull %0, i32 noundef %34, i1 noundef zeroext %1)
  br i1 %35, label %.loopexit, label %36

36:                                               ; preds = %32
  %37 = tail call zeroext i1 @errstart(i32 noundef 19, ptr noundef null) #17
  br i1 %37, label %38, label %.loopexit

38:                                               ; preds = %36
  %39 = tail call i32 (ptr, ...) @errmsg_internal(ptr noundef nonnull @.str.36) #17
  tail call void @errfinish(ptr noundef nonnull @.str.5, i32 noundef 2597, ptr noundef nonnull @__func__.ReleaseLockIfHeld) #17
  br label %.loopexit

.loopexit:                                        ; preds = %9, %29, %26, %36, %38, %32
  ret void
}